((dp0
S'11'
p1
I1382
sS'10'
p2
I7291
sS'13'
p3
I5355
sS'12'
p4
I1067
sS'15'
p5
I576
sS'14'
p6
I1723
sS'16'
p7
I413
sS'1'
p8
I51
sS'3'
p9
I333
sS'2'
p10
I168
sS'5'
p11
I514
sS'4'
p12
I646
sS'7'
p13
I1175
sS'6'
p14
I933
sS'9'
p15
I10501
sS'8'
p16
I433
s(lp17
g8
ag10
ag9
ag12
ag11
ag14
ag13
ag16
ag15
ag2
ag1
ag4
ag3
ag6
ag5
ag7
atp18
.