((dp0
S'30'
p1
I861
sS'81'
p2
I20
sS'42'
p3
I780
sS'29'
p4
I813
sS'60'
p5
I312
sS'61'
p6
I300
sS'62'
p7
I258
sS'36'
p8
I898
sS'64'
p9
I208
sS'35'
p10
I876
sS'66'
p11
I150
sS'67'
p12
I151
sS'68'
p13
I120
sS'69'
p14
I108
sS'80'
p15
I22
sS'52'
p16
I478
sS'86'
p17
I1
sS'87'
p18
I1
sS'84'
p19
I10
sS'85'
p20
I3
sS'24'
p21
I798
sS'25'
p22
I841
sS'26'
p23
I785
sS'27'
p24
I835
sS'20'
p25
I753
sS'21'
p26
I720
sS'22'
p27
I765
sS'23'
p28
I877
sS'46'
p29
I737
sS'47'
p30
I708
sS'44'
p31
I724
sS'45'
p32
I734
sS'28'
p33
I867
sS'43'
p34
I770
sS'40'
p35
I794
sS'41'
p36
I808
sS'82'
p37
I12
sS'78'
p38
I23
sS'18'
p39
I550
sS'56'
p40
I366
sS'83'
p41
I6
sS'77'
p42
I29
sS'76'
p43
I46
sS'75'
p44
I45
sS'74'
p45
I51
sS'73'
p46
I64
sS'72'
p47
I67
sS'71'
p48
I72
sS'70'
p49
I89
sS'90'
p50
I43
sS'79'
p51
I22
sS'58'
p52
I366
sS'51'
p53
I595
sS'39'
p54
I816
sS'38'
p55
I827
sS'59'
p56
I355
sS'48'
p57
I543
sS'17'
p58
I395
sS'55'
p59
I419
sS'19'
p60
I712
sS'32'
p61
I828
sS'31'
p62
I888
sS'49'
p63
I577
sS'37'
p64
I858
sS'50'
p65
I602
sS'53'
p66
I464
sS'34'
p67
I886
sS'33'
p68
I875
sS'63'
p69
I230
sS'88'
p70
I3
sS'54'
p71
I415
sS'57'
p72
I358
sS'65'
p73
I178
s(lp74
g58
ag39
ag60
ag25
ag26
ag27
ag28
ag21
ag22
ag23
ag24
ag33
ag4
ag1
ag62
ag61
ag68
ag67
ag10
ag8
ag64
ag55
ag54
ag35
ag36
ag3
ag34
ag31
ag32
ag29
ag30
ag57
ag63
ag65
ag53
ag16
ag66
ag71
ag59
ag40
ag72
ag52
ag56
ag5
ag6
ag7
ag69
ag9
ag73
ag11
ag12
ag13
ag14
ag49
ag48
ag47
ag46
ag45
ag44
ag43
ag42
ag38
ag51
ag15
ag2
ag37
ag41
ag19
ag20
ag17
ag18
ag70
ag50
atp75
.